target datalayout = "e-m:e-p270:32:32-p271:32:32-p272:64:64-i64:64-i128:128-f80:128-n8:16:32:64-S128"
target triple = "x86_64-pc-linux-gnu"

%struct.connection = type { ptr, ptr, i8, ptr, ptr, ptr }
%struct.ECPGtype_information_cache = type { ptr, i32, i32 }
%struct.var_list = type { i32, ptr, ptr }

@actual_connection_key = internal global i32 0, align 4
@actual_connection = internal global ptr null, align 8
@all_connections = internal global ptr null, align 8
@.str.31 = private unnamed_addr constant [35 x i8] c"ecpg_finish: connection %s closed\0A\00", align 1
@.str.32 = private unnamed_addr constant [7 x i8] c"(null)\00", align 1
@ivlist = external global ptr, align 8
@.str.33 = private unnamed_addr constant [35 x i8] c"ecpg_finish: called an extra time\0A\00", align 1

; Function Attrs: nounwind uwtable
define internal void @ecpg_finish(ptr noundef %0) #0 {
  %2 = alloca ptr, align 8
  %3 = alloca ptr, align 8
  %4 = alloca ptr, align 8
  %5 = alloca ptr, align 8
  %6 = alloca ptr, align 8
  store ptr %0, ptr %2, align 8
  %7 = load ptr, ptr %2, align 8
  %8 = icmp ne ptr %7, null
  br i1 %8, label %9, label %114

9:                                                ; preds = %1
  call void @llvm.lifetime.start.p0(i64 8, ptr %3) #5
  call void @llvm.lifetime.start.p0(i64 8, ptr %4) #5
  %10 = load ptr, ptr %2, align 8
  %11 = call zeroext i1 @ecpg_deallocate_all_conn(i32 noundef 0, i32 noundef 0, ptr noundef %10)
  %12 = load ptr, ptr %2, align 8
  %13 = getelementptr inbounds nuw %struct.connection, ptr %12, i32 0, i32 1
  %14 = load ptr, ptr %13, align 8
  call void @PQfinish(ptr noundef %14)
  %15 = load ptr, ptr %2, align 8
  %16 = load ptr, ptr @all_connections, align 8
  %17 = icmp eq ptr %15, %16
  br i1 %17, label %18, label %22

18:                                               ; preds = %9
  %19 = load ptr, ptr %2, align 8
  %20 = getelementptr inbounds nuw %struct.connection, ptr %19, i32 0, i32 5
  %21 = load ptr, ptr %20, align 8
  store ptr %21, ptr @all_connections, align 8
  br label %54

22:                                               ; preds = %9
  call void @llvm.lifetime.start.p0(i64 8, ptr %5) #5
  %23 = load ptr, ptr @all_connections, align 8
  store ptr %23, ptr %5, align 8
  br label %24

24:                                               ; preds = %38, %22
  %25 = load ptr, ptr %5, align 8
  %26 = getelementptr inbounds nuw %struct.connection, ptr %25, i32 0, i32 5
  %27 = load ptr, ptr %26, align 8
  %28 = icmp ne ptr %27, null
  br i1 %28, label %29, label %35

29:                                               ; preds = %24
  %30 = load ptr, ptr %5, align 8
  %31 = getelementptr inbounds nuw %struct.connection, ptr %30, i32 0, i32 5
  %32 = load ptr, ptr %31, align 8
  %33 = load ptr, ptr %2, align 8
  %34 = icmp ne ptr %32, %33
  br label %35

35:                                               ; preds = %29, %24
  %36 = phi i1 [ false, %24 ], [ %34, %29 ]
  br i1 %36, label %37, label %42

37:                                               ; preds = %35
  br label %38

38:                                               ; preds = %37
  %39 = load ptr, ptr %5, align 8
  %40 = getelementptr inbounds nuw %struct.connection, ptr %39, i32 0, i32 5
  %41 = load ptr, ptr %40, align 8
  store ptr %41, ptr %5, align 8
  br label %24, !llvm.loop !13

42:                                               ; preds = %35
  %43 = load ptr, ptr %5, align 8
  %44 = getelementptr inbounds nuw %struct.connection, ptr %43, i32 0, i32 5
  %45 = load ptr, ptr %44, align 8
  %46 = icmp ne ptr %45, null
  br i1 %46, label %47, label %53

47:                                               ; preds = %42
  %48 = load ptr, ptr %2, align 8
  %49 = getelementptr inbounds nuw %struct.connection, ptr %48, i32 0, i32 5
  %50 = load ptr, ptr %49, align 8
  %51 = load ptr, ptr %5, align 8
  %52 = getelementptr inbounds nuw %struct.connection, ptr %51, i32 0, i32 5
  store ptr %50, ptr %52, align 8
  br label %53

53:                                               ; preds = %47, %42
  call void @llvm.lifetime.end.p0(i64 8, ptr %5) #5
  br label %54

54:                                               ; preds = %53, %18
  %55 = load i32, ptr @actual_connection_key, align 4
  %56 = call ptr @pthread_getspecific(i32 noundef %55) #5
  %57 = load ptr, ptr %2, align 8
  %58 = icmp eq ptr %56, %57
  br i1 %58, label %59, label %63

59:                                               ; preds = %54
  %60 = load i32, ptr @actual_connection_key, align 4
  %61 = load ptr, ptr @all_connections, align 8
  %62 = call i32 @pthread_setspecific(i32 noundef %60, ptr noundef %61) #5
  br label %63

63:                                               ; preds = %59, %54
  %64 = load ptr, ptr @actual_connection, align 8
  %65 = load ptr, ptr %2, align 8
  %66 = icmp eq ptr %64, %65
  br i1 %66, label %67, label %69

67:                                               ; preds = %63
  %68 = load ptr, ptr @all_connections, align 8
  store ptr %68, ptr @actual_connection, align 8
  br label %69

69:                                               ; preds = %67, %63
  %70 = load ptr, ptr %2, align 8
  %71 = getelementptr inbounds nuw %struct.connection, ptr %70, i32 0, i32 0
  %72 = load ptr, ptr %71, align 8
  %73 = icmp ne ptr %72, null
  br i1 %73, label %74, label %78

74:                                               ; preds = %69
  %75 = load ptr, ptr %2, align 8
  %76 = getelementptr inbounds nuw %struct.connection, ptr %75, i32 0, i32 0
  %77 = load ptr, ptr %76, align 8
  br label %79

78:                                               ; preds = %69
  br label %79

79:                                               ; preds = %78, %74
  %80 = phi ptr [ %77, %74 ], [ @.str.32, %78 ]
  call void (ptr, ...) @ecpg_log(ptr noundef @.str.31, ptr noundef %80)
  %81 = load ptr, ptr %2, align 8
  %82 = getelementptr inbounds nuw %struct.connection, ptr %81, i32 0, i32 3
  %83 = load ptr, ptr %82, align 8
  store ptr %83, ptr %3, align 8
  br label %84

84:                                               ; preds = %88, %79
  %85 = load ptr, ptr %3, align 8
  %86 = icmp ne ptr %85, null
  br i1 %86, label %87, label %94

87:                                               ; preds = %84
  br label %88

88:                                               ; preds = %87
  %89 = load ptr, ptr %3, align 8
  store ptr %89, ptr %4, align 8
  %90 = load ptr, ptr %3, align 8
  %91 = getelementptr inbounds nuw %struct.ECPGtype_information_cache, ptr %90, i32 0, i32 0
  %92 = load ptr, ptr %91, align 8
  store ptr %92, ptr %3, align 8
  %93 = load ptr, ptr %4, align 8
  call void @ecpg_free(ptr noundef %93)
  br label %84, !llvm.loop !14

94:                                               ; preds = %84
  %95 = load ptr, ptr %2, align 8
  %96 = getelementptr inbounds nuw %struct.connection, ptr %95, i32 0, i32 0
  %97 = load ptr, ptr %96, align 8
  call void @ecpg_free(ptr noundef %97)
  %98 = load ptr, ptr %2, align 8
  call void @ecpg_free(ptr noundef %98)
  %99 = load ptr, ptr @all_connections, align 8
  %100 = icmp eq ptr %99, null
  br i1 %100, label %101, label %113

101:                                              ; preds = %94
  call void @llvm.lifetime.start.p0(i64 8, ptr %6) #5
  br label %102

102:                                              ; preds = %106, %101
  %103 = load ptr, ptr @ivlist, align 8
  %104 = icmp ne ptr %103, null
  br i1 %104, label %105, label %112

105:                                              ; preds = %102
  br label %106

106:                                              ; preds = %105
  %107 = load ptr, ptr @ivlist, align 8
  store ptr %107, ptr %6, align 8
  %108 = load ptr, ptr @ivlist, align 8
  %109 = getelementptr inbounds nuw %struct.var_list, ptr %108, i32 0, i32 2
  %110 = load ptr, ptr %109, align 8
  store ptr %110, ptr @ivlist, align 8
  %111 = load ptr, ptr %6, align 8
  call void @ecpg_free(ptr noundef %111)
  br label %102, !llvm.loop !15

112:                                              ; preds = %102
  call void @llvm.lifetime.end.p0(i64 8, ptr %6) #5
  br label %113

113:                                              ; preds = %112, %94
  call void @llvm.lifetime.end.p0(i64 8, ptr %4) #5
  call void @llvm.lifetime.end.p0(i64 8, ptr %3) #5
  br label %115

114:                                              ; preds = %1
  call void (ptr, ...) @ecpg_log(ptr noundef @.str.33)
  br label %115

115:                                              ; preds = %114, %113
  ret void
}