; Function Attrs: nounwind uwtable
define internal fastcc void @ecpg_finish(ptr noundef %0) unnamed_addr #0 {
  %.not = icmp eq ptr %0, null
  br i1 %.not, label %43, label %2

2:                                                ; preds = %1
  %3 = tail call zeroext i1 @ecpg_deallocate_all_conn(i32 noundef 0, i32 noundef 0, ptr noundef nonnull %0) #8
  %4 = getelementptr inbounds nuw i8, ptr %0, i64 8
  %5 = load ptr, ptr %4, align 8
  tail call void @PQfinish(ptr noundef %5) #8
  %6 = load ptr, ptr @all_connections, align 8
  %7 = icmp eq ptr %0, %6
  br i1 %7, label %8, label %.preheader36

8:                                                ; preds = %2
  %9 = getelementptr inbounds nuw i8, ptr %0, i64 40
  %10 = load ptr, ptr %9, align 8
  store ptr %10, ptr @all_connections, align 8
  br label %17

.preheader36:                                     ; preds = %2, %.preheader36
  %.024 = phi ptr [ %12, %.preheader36 ], [ %6, %2 ]
  %11 = getelementptr inbounds nuw i8, ptr %.024, i64 40
  %12 = load ptr, ptr %11, align 8
  %.not30 = icmp eq ptr %12, null
  %.not31 = icmp eq ptr %12, %0
  %or.cond = or i1 %.not30, %.not31
  br i1 %or.cond, label %.critedge, label %.preheader36, !llvm.loop !13

.critedge:                                        ; preds = %.preheader36
  br i1 %.not30, label %17, label %13

13:                                               ; preds = %.critedge
  %14 = getelementptr inbounds nuw i8, ptr %.024, i64 40
  %15 = getelementptr inbounds nuw i8, ptr %0, i64 40
  %16 = load ptr, ptr %15, align 8
  store ptr %16, ptr %14, align 8
  br label %17

17:                                               ; preds = %.critedge, %13, %8
  %18 = load i32, ptr @actual_connection_key, align 4
  %19 = tail call ptr @pthread_getspecific(i32 noundef %18) #8
  %20 = icmp eq ptr %19, %0
  br i1 %20, label %21, label %25

21:                                               ; preds = %17
  %22 = load i32, ptr @actual_connection_key, align 4
  %23 = load ptr, ptr @all_connections, align 8
  %24 = tail call i32 @pthread_setspecific(i32 noundef %22, ptr noundef %23) #8
  br label %25

25:                                               ; preds = %21, %17
  %26 = load ptr, ptr @actual_connection, align 8
  %27 = icmp eq ptr %26, %0
  br i1 %27, label %28, label %30

28:                                               ; preds = %25
  %29 = load ptr, ptr @all_connections, align 8
  store ptr %29, ptr @actual_connection, align 8
  br label %30

30:                                               ; preds = %28, %25
  %31 = load ptr, ptr %0, align 8
  %.not33 = icmp eq ptr %31, null
  %spec.select = select i1 %.not33, ptr @.str.32, ptr %31
  tail call void (ptr, ...) @ecpg_log(ptr noundef nonnull @.str.31, ptr noundef nonnull %spec.select) #8
  %32 = getelementptr inbounds nuw i8, ptr %0, i64 24
  %33 = load ptr, ptr %32, align 8
  %.not3437 = icmp eq ptr %33, null
  br i1 %.not3437, label %._crit_edge, label %.lr.ph

.lr.ph:                                           ; preds = %30, %.lr.ph
  %.038 = phi ptr [ %34, %.lr.ph ], [ %33, %30 ]
  %34 = load ptr, ptr %.038, align 8
  tail call void @ecpg_free(ptr noundef nonnull %.038) #8
  %.not34 = icmp eq ptr %34, null
  br i1 %.not34, label %._crit_edge, label %.lr.ph, !llvm.loop !14

._crit_edge:                                      ; preds = %.lr.ph, %30
  %35 = load ptr, ptr %0, align 8
  tail call void @ecpg_free(ptr noundef %35) #8
  tail call void @ecpg_free(ptr noundef nonnull %0) #8
  %36 = load ptr, ptr @all_connections, align 8
  %37 = icmp ne ptr %36, null
  %38 = load ptr, ptr @ivlist, align 8
  %.not3539 = icmp eq ptr %38, null
  %or.cond41 = select i1 %37, i1 true, i1 %.not3539
  br i1 %or.cond41, label %.loopexit, label %.lr.ph40

.lr.ph40:                                         ; preds = %._crit_edge, %.lr.ph40
  %39 = phi ptr [ %42, %.lr.ph40 ], [ %38, %._crit_edge ]
  %40 = getelementptr inbounds nuw i8, ptr %39, i64 16
  %41 = load ptr, ptr %40, align 8
  store ptr %41, ptr @ivlist, align 8
  tail call void @ecpg_free(ptr noundef nonnull %39) #8
  %42 = load ptr, ptr @ivlist, align 8
  %.not35 = icmp eq ptr %42, null
  br i1 %.not35, label %.loopexit, label %.lr.ph40, !llvm.loop !15

43:                                               ; preds = %1
  tail call void (ptr, ...) @ecpg_log(ptr noundef nonnull @.str.33) #8
  br label %.loopexit

.loopexit:                                        ; preds = %.lr.ph40, %._crit_edge, %43
  ret void
}